target datalayout = "e-m:e-p270:32:32-p271:32:32-p272:64:64-i64:64-i128:128-f80:128-n8:16:32:64-S128"
target triple = "x86_64-pc-linux-gnu"

%struct.PJconsts = type { ptr, ptr, ptr, ptr, ptr, ptr, ptr, ptr, ptr, ptr, ptr, ptr, i32, ptr, ptr, ptr, ptr, ptr, ptr, ptr, ptr, double, double, double, double, double, double, double, double, double, double, double, double, double, double, double, double, double, double, double, double, double, double, i32, i32, i32, i32, i32, i32, i32, i32, i32, i32, i32, ptr, ptr, ptr, ptr, ptr, ptr, double, double, double, double, double, double, double, double, double, double, double, i32, [7 x double], i32, ptr, ptr, double, double, i32, [4 x i8], %"class.std::shared_ptr", i8, double, i8, %"class.std::__cxx11::basic_string", %"class.std::__cxx11::basic_string", %"class.std::__cxx11::basic_string", i8, %"class.std::vector", i32, %"class.std::vector.3", i32, i8, i8, i8, ptr }
%"class.std::shared_ptr" = type { %"class.std::__shared_ptr" }
%"class.std::__shared_ptr" = type { ptr, %"class.std::__shared_count" }
%"class.std::__shared_count" = type { ptr }
%"class.std::__cxx11::basic_string" = type { %"struct.std::__cxx11::basic_string<char>::_Alloc_hider", i64, %union.anon }
%"struct.std::__cxx11::basic_string<char>::_Alloc_hider" = type { ptr }
%union.anon = type { i64, [8 x i8] }
%"class.std::vector" = type { %"struct.std::_Vector_base" }
%"struct.std::_Vector_base" = type { %"struct.std::_Vector_base<osgeo::proj::operation::GridDescription, std::allocator<osgeo::proj::operation::GridDescription>>::_Vector_impl" }
%"struct.std::_Vector_base<osgeo::proj::operation::GridDescription, std::allocator<osgeo::proj::operation::GridDescription>>::_Vector_impl" = type { %"struct.std::_Vector_base<osgeo::proj::operation::GridDescription, std::allocator<osgeo::proj::operation::GridDescription>>::_Vector_impl_data" }
%"struct.std::_Vector_base<osgeo::proj::operation::GridDescription, std::allocator<osgeo::proj::operation::GridDescription>>::_Vector_impl_data" = type { ptr, ptr, ptr }
%"class.std::vector.3" = type { %"struct.std::_Vector_base.4" }
%"struct.std::_Vector_base.4" = type { %"struct.std::_Vector_base<PJCoordOperation, std::allocator<PJCoordOperation>>::_Vector_impl" }
%"struct.std::_Vector_base<PJCoordOperation, std::allocator<PJCoordOperation>>::_Vector_impl" = type { %"struct.std::_Vector_base<PJCoordOperation, std::allocator<PJCoordOperation>>::_Vector_impl_data" }
%"struct.std::_Vector_base<PJCoordOperation, std::allocator<PJCoordOperation>>::_Vector_impl_data" = type { ptr, ptr, ptr }
%union.PROJVALUE = type { double }
%"struct.(anonymous namespace)::pj_bonne_data" = type { double, double, double, double, ptr }

@.str.1 = private unnamed_addr constant [7 x i8] c"rlat_1\00", align 1
@.str.2 = private unnamed_addr constant [47 x i8] c"Invalid value for lat_1: |lat_1| should be > 0\00", align 1

; Function Attrs: mustprogress uwtable
define internal noundef ptr @_ZL19pj_bonne_destructorP8PJconstsi(ptr noundef %0, i32 noundef %1) #0 {
  %3 = alloca ptr, align 8
  %4 = alloca ptr, align 8
  %5 = alloca i32, align 4
  store ptr %0, ptr %4, align 8, !tbaa !3
  store i32 %1, ptr %5, align 4, !tbaa !54
  %6 = load ptr, ptr %4, align 8, !tbaa !3
  %7 = icmp eq ptr null, %6
  br i1 %7, label %8, label %9

8:                                                ; preds = %2
  store ptr null, ptr %3, align 8
  br label %27

9:                                                ; preds = %2
  %10 = load ptr, ptr %4, align 8, !tbaa !3
  %11 = getelementptr inbounds nuw %struct.PJconsts, ptr %10, i32 0, i32 11
  %12 = load ptr, ptr %11, align 8, !tbaa !43
  %13 = icmp eq ptr null, %12
  br i1 %13, label %14, label %18

14:                                               ; preds = %9
  %15 = load ptr, ptr %4, align 8, !tbaa !3
  %16 = load i32, ptr %5, align 4, !tbaa !54
  %17 = call noundef ptr @_Z21pj_default_destructorP8PJconstsi(ptr noundef %15, i32 noundef %16)
  store ptr %17, ptr %3, align 8
  br label %27

18:                                               ; preds = %9
  %19 = load ptr, ptr %4, align 8, !tbaa !3
  %20 = getelementptr inbounds nuw %struct.PJconsts, ptr %19, i32 0, i32 11
  %21 = load ptr, ptr %20, align 8, !tbaa !43
  %22 = getelementptr inbounds nuw %"struct.(anonymous namespace)::pj_bonne_data", ptr %21, i32 0, i32 4
  %23 = load ptr, ptr %22, align 8, !tbaa !53
  call void @free(ptr noundef %23) #8
  %24 = load ptr, ptr %4, align 8, !tbaa !3
  %25 = load i32, ptr %5, align 4, !tbaa !54
  %26 = call noundef ptr @_Z21pj_default_destructorP8PJconstsi(ptr noundef %24, i32 noundef %25)
  store ptr %26, ptr %3, align 8
  br label %27

27:                                               ; preds = %18, %14, %8
  %28 = load ptr, ptr %3, align 8
  ret ptr %28
}

; Function Attrs: mustprogress uwtable
define hidden noundef ptr @_Z34pj_projection_specific_setup_bonneP8PJconsts(ptr noundef %0) #0 {
  %2 = alloca ptr, align 8
  %3 = alloca ptr, align 8
  %4 = alloca double, align 8
  %5 = alloca ptr, align 8
  %6 = alloca i32, align 4
  %7 = alloca %union.PROJVALUE, align 8
  store ptr %0, ptr %3, align 8, !tbaa !3
  call void @llvm.lifetime.start.p0(i64 8, ptr %4) #8
  call void @llvm.lifetime.start.p0(i64 8, ptr %5) #8
  %8 = call noalias ptr @calloc(i64 noundef 1, i64 noundef 40) #9
  store ptr %8, ptr %5, align 8, !tbaa !41
  %9 = load ptr, ptr %5, align 8, !tbaa !41
  %10 = icmp eq ptr null, %9
  br i1 %10, label %11, label %14

11:                                               ; preds = %1
  %12 = load ptr, ptr %3, align 8, !tbaa !3
  %13 = call noundef ptr @_Z21pj_default_destructorP8PJconstsi(ptr noundef %12, i32 noundef 4096)
  store ptr %13, ptr %2, align 8
  store i32 1, ptr %6, align 4
  br label %133

14:                                               ; preds = %1
  %15 = load ptr, ptr %5, align 8, !tbaa !41
  %16 = load ptr, ptr %3, align 8, !tbaa !3
  %17 = getelementptr inbounds nuw %struct.PJconsts, ptr %16, i32 0, i32 11
  store ptr %15, ptr %17, align 8, !tbaa !43
  %18 = load ptr, ptr %3, align 8, !tbaa !3
  %19 = getelementptr inbounds nuw %struct.PJconsts, ptr %18, i32 0, i32 19
  store ptr @_ZL19pj_bonne_destructorP8PJconstsi, ptr %19, align 8, !tbaa !44
  call void @llvm.lifetime.start.p0(i64 8, ptr %7) #8
  %20 = load ptr, ptr %3, align 8, !tbaa !3
  %21 = getelementptr inbounds nuw %struct.PJconsts, ptr %20, i32 0, i32 0
  %22 = load ptr, ptr %21, align 8, !tbaa !45
  %23 = load ptr, ptr %3, align 8, !tbaa !3
  %24 = getelementptr inbounds nuw %struct.PJconsts, ptr %23, i32 0, i32 3
  %25 = load ptr, ptr %24, align 8, !tbaa !46
  %26 = call i64 @_Z8pj_paramP6pj_ctxP8ARG_listPKc(ptr noundef %22, ptr noundef %25, ptr noundef @.str.1)
  %27 = getelementptr inbounds nuw %union.PROJVALUE, ptr %7, i32 0, i32 0
  store i64 %26, ptr %27, align 8
  %28 = load double, ptr %7, align 8, !tbaa !47
  %29 = load ptr, ptr %5, align 8, !tbaa !41
  %30 = getelementptr inbounds nuw %"struct.(anonymous namespace)::pj_bonne_data", ptr %29, i32 0, i32 0
  store double %28, ptr %30, align 8, !tbaa !48
  call void @llvm.lifetime.end.p0(i64 8, ptr %7) #8
  %31 = load ptr, ptr %5, align 8, !tbaa !41
  %32 = getelementptr inbounds nuw %"struct.(anonymous namespace)::pj_bonne_data", ptr %31, i32 0, i32 0
  %33 = load double, ptr %32, align 8, !tbaa !48
  %34 = call double @llvm.fabs.f64(double %33)
  %35 = fcmp olt double %34, 1.000000e-10
  br i1 %35, label %36, label %40

36:                                               ; preds = %14
  %37 = load ptr, ptr %3, align 8, !tbaa !3
  call void (ptr, ptr, ...) @_Z14proj_log_errorPK8PJconstsPKcz(ptr noundef %37, ptr noundef @.str.2)
  %38 = load ptr, ptr %3, align 8, !tbaa !3
  %39 = call noundef ptr @_ZL19pj_bonne_destructorP8PJconstsi(ptr noundef %38, i32 noundef 1027)
  store ptr %39, ptr %2, align 8
  store i32 1, ptr %6, align 4
  br label %133

40:                                               ; preds = %14
  %41 = load ptr, ptr %3, align 8, !tbaa !3
  %42 = getelementptr inbounds nuw %struct.PJconsts, ptr %41, i32 0, i32 27
  %43 = load double, ptr %42, align 8, !tbaa !51
  %44 = fcmp une double %43, 0.000000e+00
  br i1 %44, label %45, label %108

45:                                               ; preds = %40
  %46 = load ptr, ptr %3, align 8, !tbaa !3
  %47 = getelementptr inbounds nuw %struct.PJconsts, ptr %46, i32 0, i32 36
  %48 = load double, ptr %47, align 8, !tbaa !52
  %49 = call noundef ptr @_Z7pj_enfnd(double noundef %48)
  %50 = load ptr, ptr %5, align 8, !tbaa !41
  %51 = getelementptr inbounds nuw %"struct.(anonymous namespace)::pj_bonne_data", ptr %50, i32 0, i32 4
  store ptr %49, ptr %51, align 8, !tbaa !53
  %52 = load ptr, ptr %5, align 8, !tbaa !41
  %53 = getelementptr inbounds nuw %"struct.(anonymous namespace)::pj_bonne_data", ptr %52, i32 0, i32 4
  %54 = load ptr, ptr %53, align 8, !tbaa !53
  %55 = icmp eq ptr null, %54
  br i1 %55, label %56, label %59

56:                                               ; preds = %45
  %57 = load ptr, ptr %3, align 8, !tbaa !3
  %58 = call noundef ptr @_ZL19pj_bonne_destructorP8PJconstsi(ptr noundef %57, i32 noundef 4096)
  store ptr %58, ptr %2, align 8
  store i32 1, ptr %6, align 4
  br label %133

59:                                               ; preds = %45
  %60 = load ptr, ptr %5, align 8, !tbaa !41
  %61 = getelementptr inbounds nuw %"struct.(anonymous namespace)::pj_bonne_data", ptr %60, i32 0, i32 0
  %62 = load double, ptr %61, align 8, !tbaa !48
  %63 = call double @sin(double noundef %62) #8, !tbaa !54
  %64 = load ptr, ptr %5, align 8, !tbaa !41
  %65 = getelementptr inbounds nuw %"struct.(anonymous namespace)::pj_bonne_data", ptr %64, i32 0, i32 2
  store double %63, ptr %65, align 8, !tbaa !55
  %66 = load ptr, ptr %5, align 8, !tbaa !41
  %67 = getelementptr inbounds nuw %"struct.(anonymous namespace)::pj_bonne_data", ptr %66, i32 0, i32 0
  %68 = load double, ptr %67, align 8, !tbaa !48
  %69 = call double @cos(double noundef %68) #8, !tbaa !54
  store double %69, ptr %4, align 8, !tbaa !56
  %70 = load ptr, ptr %5, align 8, !tbaa !41
  %71 = getelementptr inbounds nuw %"struct.(anonymous namespace)::pj_bonne_data", ptr %70, i32 0, i32 0
  %72 = load double, ptr %71, align 8, !tbaa !48
  %73 = load ptr, ptr %5, align 8, !tbaa !41
  %74 = getelementptr inbounds nuw %"struct.(anonymous namespace)::pj_bonne_data", ptr %73, i32 0, i32 2
  %75 = load double, ptr %74, align 8, !tbaa !55
  %76 = load double, ptr %4, align 8, !tbaa !56
  %77 = load ptr, ptr %5, align 8, !tbaa !41
  %78 = getelementptr inbounds nuw %"struct.(anonymous namespace)::pj_bonne_data", ptr %77, i32 0, i32 4
  %79 = load ptr, ptr %78, align 8, !tbaa !53
  %80 = call noundef double @_Z7pj_mlfndddPKd(double noundef %72, double noundef %75, double noundef %76, ptr noundef %79)
  %81 = load ptr, ptr %5, align 8, !tbaa !41
  %82 = getelementptr inbounds nuw %"struct.(anonymous namespace)::pj_bonne_data", ptr %81, i32 0, i32 3
  store double %80, ptr %82, align 8, !tbaa !57
  %83 = load double, ptr %4, align 8, !tbaa !56
  %84 = load ptr, ptr %3, align 8, !tbaa !3
  %85 = getelementptr inbounds nuw %struct.PJconsts, ptr %84, i32 0, i32 27
  %86 = load double, ptr %85, align 8, !tbaa !51
  %87 = load ptr, ptr %5, align 8, !tbaa !41
  %88 = getelementptr inbounds nuw %"struct.(anonymous namespace)::pj_bonne_data", ptr %87, i32 0, i32 2
  %89 = load double, ptr %88, align 8, !tbaa !55
  %90 = fmul double %86, %89
  %91 = load ptr, ptr %5, align 8, !tbaa !41
  %92 = getelementptr inbounds nuw %"struct.(anonymous namespace)::pj_bonne_data", ptr %91, i32 0, i32 2
  %93 = load double, ptr %92, align 8, !tbaa !55
  %94 = fneg double %90
  %95 = call double @llvm.fmuladd.f64(double %94, double %93, double 1.000000e+00)
  %96 = call double @sqrt(double noundef %95) #8, !tbaa !54
  %97 = load ptr, ptr %5, align 8, !tbaa !41
  %98 = getelementptr inbounds nuw %"struct.(anonymous namespace)::pj_bonne_data", ptr %97, i32 0, i32 2
  %99 = load double, ptr %98, align 8, !tbaa !55
  %100 = fmul double %96, %99
  %101 = fdiv double %83, %100
  %102 = load ptr, ptr %5, align 8, !tbaa !41
  %103 = getelementptr inbounds nuw %"struct.(anonymous namespace)::pj_bonne_data", ptr %102, i32 0, i32 2
  store double %101, ptr %103, align 8, !tbaa !55
  %104 = load ptr, ptr %3, align 8, !tbaa !3
  %105 = getelementptr inbounds nuw %struct.PJconsts, ptr %104, i32 0, i32 14
  store ptr @_ZL15bonne_e_inverse5PJ_XYP8PJconsts, ptr %105, align 8, !tbaa !58
  %106 = load ptr, ptr %3, align 8, !tbaa !3
  %107 = getelementptr inbounds nuw %struct.PJconsts, ptr %106, i32 0, i32 13
  store ptr @_ZL15bonne_e_forward5PJ_LPP8PJconsts, ptr %107, align 8, !tbaa !59
  br label %131

108:                                              ; preds = %40
  %109 = load ptr, ptr %5, align 8, !tbaa !41
  %110 = getelementptr inbounds nuw %"struct.(anonymous namespace)::pj_bonne_data", ptr %109, i32 0, i32 0
  %111 = load double, ptr %110, align 8, !tbaa !48
  %112 = call double @llvm.fabs.f64(double %111)
  %113 = fadd double %112, 1.000000e-10
  %114 = fcmp oge double %113, 0x3FF921FB54442D18
  br i1 %114, label %115, label %118

115:                                              ; preds = %108
  %116 = load ptr, ptr %5, align 8, !tbaa !41
  %117 = getelementptr inbounds nuw %"struct.(anonymous namespace)::pj_bonne_data", ptr %116, i32 0, i32 1
  store double 0.000000e+00, ptr %117, align 8, !tbaa !60
  br label %126

118:                                              ; preds = %108
  %119 = load ptr, ptr %5, align 8, !tbaa !41
  %120 = getelementptr inbounds nuw %"struct.(anonymous namespace)::pj_bonne_data", ptr %119, i32 0, i32 0
  %121 = load double, ptr %120, align 8, !tbaa !48
  %122 = call double @tan(double noundef %121) #8, !tbaa !54
  %123 = fdiv double 1.000000e+00, %122
  %124 = load ptr, ptr %5, align 8, !tbaa !41
  %125 = getelementptr inbounds nuw %"struct.(anonymous namespace)::pj_bonne_data", ptr %124, i32 0, i32 1
  store double %123, ptr %125, align 8, !tbaa !60
  br label %126

126:                                              ; preds = %118, %115
  %127 = load ptr, ptr %3, align 8, !tbaa !3
  %128 = getelementptr inbounds nuw %struct.PJconsts, ptr %127, i32 0, i32 14
  store ptr @_ZL15bonne_s_inverse5PJ_XYP8PJconsts, ptr %128, align 8, !tbaa !58
  %129 = load ptr, ptr %3, align 8, !tbaa !3
  %130 = getelementptr inbounds nuw %struct.PJconsts, ptr %129, i32 0, i32 13
  store ptr @_ZL15bonne_s_forward5PJ_LPP8PJconsts, ptr %130, align 8, !tbaa !59
  br label %131

131:                                              ; preds = %126, %59
  %132 = load ptr, ptr %3, align 8, !tbaa !3
  store ptr %132, ptr %2, align 8
  store i32 1, ptr %6, align 4
  br label %133

133:                                              ; preds = %131, %56, %36, %11
  call void @llvm.lifetime.end.p0(i64 8, ptr %5) #8
  call void @llvm.lifetime.end.p0(i64 8, ptr %4) #8
  %134 = load ptr, ptr %2, align 8
  ret ptr %134
}