; Function Attrs: mustprogress uwtable
define hidden noundef ptr @_Z34pj_projection_specific_setup_bonneP8PJconsts(ptr noundef %0) local_unnamed_addr #0 {
  %2 = tail call noalias dereferenceable_or_null(40) ptr @calloc(i64 noundef 1, i64 noundef 40) #7
  %3 = icmp eq ptr %2, null
  br i1 %3, label %4, label %6

4:                                                ; preds = %1
  %5 = tail call noundef ptr @_Z21pj_default_destructorP8PJconstsi(ptr noundef %0, i32 noundef 4096)
  br label %67

6:                                                ; preds = %1
  %7 = getelementptr inbounds nuw i8, ptr %0, i64 88
  store ptr %2, ptr %7, align 8, !tbaa !40
  %8 = getelementptr inbounds nuw i8, ptr %0, i64 152
  store ptr @_ZL19pj_bonne_destructorP8PJconstsi, ptr %8, align 8, !tbaa !41
  %9 = load ptr, ptr %0, align 8, !tbaa !42
  %10 = getelementptr inbounds nuw i8, ptr %0, i64 24
  %11 = load ptr, ptr %10, align 8, !tbaa !43
  %12 = tail call i64 @_Z8pj_paramP6pj_ctxP8ARG_listPKc(ptr noundef %9, ptr noundef %11, ptr noundef nonnull @.str.1)
  %13 = bitcast i64 %12 to double
  store i64 %12, ptr %2, align 8, !tbaa !44
  %14 = tail call double @llvm.fabs.f64(double %13)
  %15 = fcmp olt double %14, 1.000000e-10
  br i1 %15, label %16, label %23

16:                                               ; preds = %6
  tail call void (ptr, ptr, ...) @_Z14proj_log_errorPK8PJconstsPKcz(ptr noundef nonnull %0, ptr noundef nonnull @.str.2)
  %17 = load ptr, ptr %7, align 8, !tbaa !40
  %18 = icmp eq ptr %17, null
  br i1 %18, label %_ZL19pj_bonne_destructorP8PJconstsi.exit, label %19

19:                                               ; preds = %16
  %20 = getelementptr inbounds nuw i8, ptr %17, i64 32
  %21 = load ptr, ptr %20, align 8, !tbaa !47
  tail call void @free(ptr noundef %21) #8
  br label %_ZL19pj_bonne_destructorP8PJconstsi.exit

_ZL19pj_bonne_destructorP8PJconstsi.exit:         ; preds = %16, %19
  %22 = tail call noundef ptr @_Z21pj_default_destructorP8PJconstsi(ptr noundef nonnull %0, i32 noundef 1027)
  br label %67

23:                                               ; preds = %6
  %24 = getelementptr inbounds nuw i8, ptr %0, i64 216
  %25 = load double, ptr %24, align 8, !tbaa !48
  %26 = fcmp une double %25, 0.000000e+00
  br i1 %26, label %27, label %57

27:                                               ; preds = %23
  %28 = getelementptr inbounds nuw i8, ptr %0, i64 288
  %29 = load double, ptr %28, align 8, !tbaa !49
  %30 = tail call noundef ptr @_Z7pj_enfnd(double noundef %29)
  %31 = getelementptr inbounds nuw i8, ptr %2, i64 32
  store ptr %30, ptr %31, align 8, !tbaa !47
  %32 = icmp eq ptr %30, null
  br i1 %32, label %33, label %40

33:                                               ; preds = %27
  %34 = load ptr, ptr %7, align 8, !tbaa !40
  %35 = icmp eq ptr %34, null
  br i1 %35, label %_ZL19pj_bonne_destructorP8PJconstsi.exit44, label %36

36:                                               ; preds = %33
  %37 = getelementptr inbounds nuw i8, ptr %34, i64 32
  %38 = load ptr, ptr %37, align 8, !tbaa !47
  tail call void @free(ptr noundef %38) #8
  br label %_ZL19pj_bonne_destructorP8PJconstsi.exit44

_ZL19pj_bonne_destructorP8PJconstsi.exit44:       ; preds = %33, %36
  %39 = tail call noundef ptr @_Z21pj_default_destructorP8PJconstsi(ptr noundef nonnull %0, i32 noundef 4096)
  br label %67

40:                                               ; preds = %27
  %41 = load double, ptr %2, align 8, !tbaa !44
  %42 = tail call double @sin(double noundef %41) #8, !tbaa !50
  %43 = getelementptr inbounds nuw i8, ptr %2, i64 16
  store double %42, ptr %43, align 8, !tbaa !51
  %44 = tail call double @cos(double noundef %41) #8, !tbaa !50
  %45 = tail call noundef double @_Z7pj_mlfndddPKd(double noundef %41, double noundef %42, double noundef %44, ptr noundef nonnull %30)
  %46 = getelementptr inbounds nuw i8, ptr %2, i64 24
  store double %45, ptr %46, align 8, !tbaa !52
  %47 = load double, ptr %24, align 8, !tbaa !48
  %48 = load double, ptr %43, align 8, !tbaa !51
  %49 = fneg double %48
  %50 = fmul double %47, %49
  %51 = tail call double @llvm.fmuladd.f64(double %50, double %48, double 1.000000e+00)
  %52 = tail call double @sqrt(double noundef %51) #8, !tbaa !50
  %53 = fmul double %48, %52
  %54 = fdiv double %44, %53
  store double %54, ptr %43, align 8, !tbaa !51
  %55 = getelementptr inbounds nuw i8, ptr %0, i64 112
  store ptr @_ZL15bonne_e_inverse5PJ_XYP8PJconsts, ptr %55, align 8, !tbaa !53
  %56 = getelementptr inbounds nuw i8, ptr %0, i64 104
  store ptr @_ZL15bonne_e_forward5PJ_LPP8PJconsts, ptr %56, align 8, !tbaa !54
  br label %67

57:                                               ; preds = %23
  %58 = fadd double %14, 1.000000e-10
  %59 = fcmp ult double %58, 0x3FF921FB54442D18
  br i1 %59, label %60, label %63

60:                                               ; preds = %57
  %61 = tail call double @tan(double noundef %13) #8, !tbaa !50
  %62 = fdiv double 1.000000e+00, %61
  br label %63

63:                                               ; preds = %57, %60
  %.sink = phi double [ %62, %60 ], [ 0.000000e+00, %57 ]
  %64 = getelementptr inbounds nuw i8, ptr %2, i64 8
  store double %.sink, ptr %64, align 8, !tbaa !55
  %65 = getelementptr inbounds nuw i8, ptr %0, i64 112
  store ptr @_ZL15bonne_s_inverse5PJ_XYP8PJconsts, ptr %65, align 8, !tbaa !53
  %66 = getelementptr inbounds nuw i8, ptr %0, i64 104
  store ptr @_ZL15bonne_s_forward5PJ_LPP8PJconsts, ptr %66, align 8, !tbaa !54
  br label %67

67:                                               ; preds = %40, %63, %_ZL19pj_bonne_destructorP8PJconstsi.exit44, %_ZL19pj_bonne_destructorP8PJconstsi.exit, %4
  %.0 = phi ptr [ %5, %4 ], [ %22, %_ZL19pj_bonne_destructorP8PJconstsi.exit ], [ %39, %_ZL19pj_bonne_destructorP8PJconstsi.exit44 ], [ %0, %63 ], [ %0, %40 ]
  ret ptr %.0
}